Certificate Request:
    Data:
        Version: 0 (0x0)
        Subject: C=CN, ST=BJ, L=Beijing, O=MediaKind, CN=root/emailAddress=shaojing.chen@mediakind.com
        Subject Public Key Info:
            Public Key Algorithm: rsaEncryption
                Public-Key: (2048 bit)
                Modulus:
                    00:d2:37:cf:b0:d6:3e:17:42:dc:2e:c5:fb:e7:b8:
                    26:c5:9b:69:9b:36:1c:ce:8b:9c:41:23:71:d1:3f:
                    c5:98:b2:49:b7:44:1e:3e:e9:04:f5:9b:f5:7f:00:
                    1d:6d:74:62:bb:e5:5b:b7:04:90:54:4d:89:91:38:
                    b7:80:92:f9:88:1a:70:fe:6e:4c:b1:87:84:cd:26:
                    87:88:2c:42:fe:39:80:a1:a0:d6:41:3a:9b:c9:b0:
                    ec:89:a8:81:e8:59:b7:8d:fd:ab:59:d1:e6:1d:35:
                    e7:29:bf:9d:fb:5f:04:4d:4b:39:8b:b2:96:9e:06:
                    c7:96:d3:0a:e0:54:98:29:7b:7a:02:77:e6:14:8d:
                    62:0d:06:f5:74:7c:53:de:6a:ce:db:32:f8:6e:10:
                    0e:7f:eb:92:f8:02:91:82:f0:bd:07:c5:e5:3e:17:
                    b4:41:99:1b:32:e8:6a:c4:76:26:b0:f3:24:d7:62:
                    a7:b2:9a:62:10:a1:55:cf:a2:68:85:d0:94:08:11:
                    47:04:e2:77:a7:29:e2:b6:9f:c0:45:7c:a7:34:3c:
                    2b:d3:5e:f4:6f:b4:73:ce:f7:9e:97:85:f7:76:18:
                    88:a4:a5:b5:4d:62:41:8b:6c:d3:0c:70:e4:05:35:
                    33:55:47:20:db:1f:bd:65:22:da:49:98:74:c5:5e:
                    26:69
                Exponent: 65537 (0x10001)
        Attributes:
            a0:00
    Signature Algorithm: sha1WithRSAEncryption
         ba:4d:bf:5c:c8:93:1b:59:2e:f0:6e:89:e2:da:2e:11:34:84:
         5a:16:d9:26:e4:dd:28:5f:3a:27:a9:82:5f:7c:d1:f2:68:0c:
         47:7a:21:c0:bc:e4:cc:3a:b0:99:09:70:58:c4:b1:41:6a:1a:
         a4:c7:b7:eb:4d:c6:5c:27:29:79:b0:11:5b:c3:f7:a7:f1:33:
         28:b9:63:a7:6c:aa:7c:96:ec:4e:95:e1:37:97:0c:1d:60:51:
         b2:b8:4c:a2:8a:8e:1e:cd:17:a8:e4:8a:17:45:8d:27:94:30:
         6f:7c:2f:55:95:1c:df:d3:eb:96:d4:e2:5d:f1:f7:8e:48:d0:
         4e:27:94:d3:71:da:1e:db:26:03:61:21:87:da:e9:c1:3c:a0:
         ce:0c:36:4c:8a:0d:39:06:85:67:24:93:37:c8:1e:e6:00:b5:
         0b:aa:83:57:68:15:c9:a2:d3:f9:e8:06:bf:6c:10:c0:8e:99:
         a6:90:f9:ff:91:bf:43:3b:5e:e4:c2:88:ea:66:c0:29:ae:77:
         3e:93:cb:b2:50:df:90:76:d4:9b:9d:ea:0d:df:87:01:a1:83:
         af:69:f6:16:23:51:06:18:a7:02:53:f5:5b:0a:4d:53:09:27:
         4f:5c:2a:ba:7d:08:2f:69:e2:38:f2:0e:ec:a1:90:b8:18:ab:
         cf:f5:a1:55
-----BEGIN CERTIFICATE REQUEST-----
MIICwDCCAagCAQAwezELMAkGA1UEBhMCQ04xCzAJBgNVBAgMAkJKMRAwDgYDVQQH
DAdCZWlqaW5nMRIwEAYDVQQKDAlNZWRpYUtpbmQxDTALBgNVBAMMBHJvb3QxKjAo
BgkqhkiG9w0BCQEWG3NoYW9qaW5nLmNoZW5AbWVkaWFraW5kLmNvbTCCASIwDQYJ
KoZIhvcNAQEBBQADggEPADCCAQoCggEBANI3z7DWPhdC3C7F++e4JsWbaZs2HM6L
nEEjcdE/xZiySbdEHj7pBPWb9X8AHW10YrvlW7cEkFRNiZE4t4CS+YgacP5uTLGH
hM0mh4gsQv45gKGg1kE6m8mw7ImogehZt439q1nR5h015ym/nftfBE1LOYuylp4G
x5bTCuBUmCl7egJ35hSNYg0G9XR8U95qztsy+G4QDn/rkvgCkYLwvQfF5T4XtEGZ
GzLoasR2JrDzJNdip7KaYhChVc+iaIXQlAgRRwTid6cp4rafwEV8pzQ8K9Ne9G+0
c873npeF93YYiKSltU1iQYts0wxw5AU1M1VHINsfvWUi2kmYdMVeJmkCAwEAAaAA
MA0GCSqGSIb3DQEBBQUAA4IBAQC6Tb9cyJMbWS7wboni2i4RNIRaFtkm5N0oXzon
qYJffNHyaAxHeiHAvOTMOrCZCXBYxLFBahqkx7frTcZcJyl5sBFbw/en8TMouWOn
bKp8luxOleE3lwwdYFGyuEyiio4ezReo5IoXRY0nlDBvfC9VlRzf0+uW1OJd8feO
SNBOJ5TTcdoe2yYDYSGH2unBPKDODDZMig05BoVnJJM3yB7mALULqoNXaBXJotP5
6Aa/bBDAjpmmkPn/kb9DO17kwojqZsAprnc+k8uyUN+QdtSbneoN34cBoYOvafYW
I1EGGKcCU/VbCk1TCSdPXCq6fQgvaeI48g7soZC4GKvP9aFV
-----END CERTIFICATE REQUEST-----
